; Function Attrs: mustprogress uwtable
define hidden noundef nonnull align 8 dereferenceable(120) ptr @_ZN19OpenColorIO_v2_4dev18FormatMetadataImplaSERKS0_(ptr noundef nonnull returned align 8 dereferenceable(120) %this, ptr noundef nonnull align 8 dereferenceable(120) %rhs) local_unnamed_addr #0 align 2 {
entry:
  %cmp.not = icmp eq ptr %this, %rhs
  br i1 %cmp.not, label %if.end, label %if.then

if.then:                                          ; preds = %entry
  %m_name = getelementptr inbounds i8, ptr %rhs, i64 8
  %m_name2 = getelementptr inbounds i8, ptr %this, i64 8
  %call = tail call noundef nonnull align 8 dereferenceable(32) ptr @_ZNSt7__cxx1112basic_stringIcSt11char_traitsIcESaIcEEaSERKS4_(ptr noundef nonnull align 8 dereferenceable(32) %m_name2, ptr noundef nonnull align 8 dereferenceable(32) %m_name)
  %m_value = getelementptr inbounds i8, ptr %rhs, i64 40
  %m_value3 = getelementptr inbounds i8, ptr %this, i64 40
  %call4 = tail call noundef nonnull align 8 dereferenceable(32) ptr @_ZNSt7__cxx1112basic_stringIcSt11char_traitsIcESaIcEEaSERKS4_(ptr noundef nonnull align 8 dereferenceable(32) %m_value3, ptr noundef nonnull align 8 dereferenceable(32) %m_value)
  %m_attributes = getelementptr inbounds i8, ptr %rhs, i64 72
  %m_attributes5 = getelementptr inbounds i8, ptr %this, i64 72
  %call6 = tail call noundef nonnull align 8 dereferenceable(24) ptr @_ZNSt6vectorISt4pairINSt7__cxx1112basic_stringIcSt11char_traitsIcESaIcEEES6_ESaIS7_EEaSERKS9_(ptr noundef nonnull align 8 dereferenceable(24) %m_attributes5, ptr noundef nonnull align 8 dereferenceable(24) %m_attributes)
  %m_elements = getelementptr inbounds i8, ptr %rhs, i64 96
  %m_elements7 = getelementptr inbounds i8, ptr %this, i64 96
  %call8 = tail call noundef nonnull align 8 dereferenceable(24) ptr @_ZNSt6vectorIN19OpenColorIO_v2_4dev18FormatMetadataImplESaIS1_EEaSERKS3_(ptr noundef nonnull align 8 dereferenceable(24) %m_elements7, ptr noundef nonnull align 8 dereferenceable(24) %m_elements)
  br label %if.end

if.end:                                           ; preds = %if.then, %entry
  ret ptr %this
}